; Function Attrs: mustprogress uwtable
define void @_ZN2cv6detail27BundleAdjusterAffinePartial12calcJacobianERNS_3MatE(ptr noundef nonnull align 8 dereferenceable(472) %0, ptr noundef nonnull align 8 dereferenceable(96) %1) unnamed_addr #3 align 2 personality ptr @__gxx_personality_v0 {
  %3 = alloca %"class.cv::Range", align 8
  %4 = alloca %"class.cv::Range", align 4
  %5 = alloca %"class.cv::Mat", align 8
  %6 = getelementptr inbounds nuw i8, ptr %0, i64 108
  %7 = load i32, ptr %6, align 4, !tbaa !178
  %8 = shl nsw i32 %7, 1
  %9 = getelementptr inbounds nuw i8, ptr %0, i64 104
  %10 = load i32, ptr %9, align 8, !tbaa !166
  %11 = shl nsw i32 %10, 2
  tail call void @_ZN2cv3Mat6createEiii(ptr noundef nonnull align 8 dereferenceable(96) %1, i32 noundef %8, i32 noundef %11, i32 noundef 6)
  %12 = load i32, ptr %9, align 8, !tbaa !166
  %13 = icmp sgt i32 %12, 0
  br i1 %13, label %.preheader.lr.ph, label %._crit_edge

.preheader.lr.ph:                                 ; preds = %2
  %14 = getelementptr inbounds nuw i8, ptr %0, i64 176
  %15 = getelementptr inbounds nuw i8, ptr %0, i64 232
  %16 = getelementptr inbounds nuw i8, ptr %0, i64 280
  %17 = getelementptr inbounds nuw i8, ptr %0, i64 376
  %18 = getelementptr inbounds nuw i8, ptr %4, i64 4
  %19 = getelementptr inbounds nuw i8, ptr %0, i64 392
  %20 = getelementptr inbounds nuw i8, ptr %5, i64 16
  %21 = getelementptr inbounds nuw i8, ptr %0, i64 288
  %22 = getelementptr inbounds nuw i8, ptr %5, i64 72
  %23 = getelementptr inbounds nuw i8, ptr %0, i64 448
  %24 = getelementptr inbounds nuw i8, ptr %0, i64 296
  %25 = getelementptr inbounds nuw i8, ptr %0, i64 352
  %.pre.pre = load ptr, ptr %14, align 8, !tbaa !109
  %.pre31.pre = load ptr, ptr %15, align 8, !tbaa !110
  %.pre32.pre = load i64, ptr %.pre31.pre, align 8, !tbaa !72
  br label %.preheader

.preheader:                                       ; preds = %.preheader.lr.ph, %27
  %.pre32 = phi i64 [ %.pre32.pre, %.preheader.lr.ph ], [ %74, %27 ]
  %.pre = phi ptr [ %.pre.pre, %.preheader.lr.ph ], [ %72, %27 ]
  %indvars.iv28 = phi i64 [ 0, %.preheader.lr.ph ], [ %indvars.iv.next29, %27 ]
  %26 = shl nsw i64 %indvars.iv28, 2
  br label %31

._crit_edge:                                      ; preds = %27, %2
  ret void

27:                                               ; preds = %_ZN12_GLOBAL__N_19calcDerivERKN2cv3MatES3_dS1_.exit
  %indvars.iv.next29 = add nuw nsw i64 %indvars.iv28, 1
  %28 = load i32, ptr %9, align 8, !tbaa !166
  %29 = sext i32 %28 to i64
  %30 = icmp slt i64 %indvars.iv.next29, %29
  br i1 %30, label %.preheader, label %._crit_edge, !llvm.loop !330

31:                                               ; preds = %.preheader, %_ZN12_GLOBAL__N_19calcDerivERKN2cv3MatES3_dS1_.exit
  %32 = phi i64 [ %.pre32, %.preheader ], [ %74, %_ZN12_GLOBAL__N_19calcDerivERKN2cv3MatES3_dS1_.exit ]
  %33 = phi ptr [ %.pre, %.preheader ], [ %72, %_ZN12_GLOBAL__N_19calcDerivERKN2cv3MatES3_dS1_.exit ]
  %indvars.iv = phi i64 [ 0, %.preheader ], [ %indvars.iv.next, %_ZN12_GLOBAL__N_19calcDerivERKN2cv3MatES3_dS1_.exit ]
  %34 = add nuw nsw i64 %indvars.iv, %26
  %35 = mul i64 %32, %34
  %36 = getelementptr inbounds nuw i8, ptr %33, i64 %35
  %37 = load double, ptr %36, align 8, !tbaa !22
  %38 = fadd double %37, -1.000000e-04
  store double %38, ptr %36, align 8, !tbaa !22
  %39 = load ptr, ptr %0, align 8, !tbaa !103
  %40 = getelementptr inbounds nuw i8, ptr %39, i64 40
  %41 = load ptr, ptr %40, align 8
  call void %41(ptr noundef nonnull align 8 dereferenceable(472) %0, ptr noundef nonnull align 8 dereferenceable(96) %16)
  %42 = fadd double %37, 1.000000e-04
  %43 = load ptr, ptr %14, align 8, !tbaa !109
  %44 = load ptr, ptr %15, align 8, !tbaa !110
  %45 = load i64, ptr %44, align 8, !tbaa !72
  %46 = mul i64 %45, %34
  %47 = getelementptr inbounds nuw i8, ptr %43, i64 %46
  store double %42, ptr %47, align 8, !tbaa !22
  %48 = load ptr, ptr %0, align 8, !tbaa !103
  %49 = getelementptr inbounds nuw i8, ptr %48, i64 40
  %50 = load ptr, ptr %49, align 8
  call void %50(ptr noundef nonnull align 8 dereferenceable(472) %0, ptr noundef nonnull align 8 dereferenceable(96) %17)
  call void @llvm.lifetime.start.p0(i64 8, ptr nonnull %3) #24, !noalias !331
  store i64 9223372034707292160, ptr %3, align 8, !noalias !331
  call void @llvm.lifetime.start.p0(i64 8, ptr nonnull %4) #24, !noalias !331
  %51 = trunc nuw nsw i64 %34 to i32
  store i32 %51, ptr %4, align 4, !tbaa !252, !noalias !331
  %52 = trunc i64 %34 to i32
  %53 = add i32 %52, 1
  store i32 %53, ptr %18, align 4, !tbaa !254, !noalias !331
  call void @_ZN2cv3MatC1ERKS0_RKNS_5RangeES5_(ptr noundef nonnull align 8 dereferenceable(96) %5, ptr noundef nonnull align 8 dereferenceable(96) %1, ptr noundef nonnull align 4 dereferenceable(8) %3, ptr noundef nonnull align 4 dereferenceable(8) %4)
  call void @llvm.lifetime.end.p0(i64 8, ptr nonnull %4) #24, !noalias !331
  call void @llvm.lifetime.end.p0(i64 8, ptr nonnull %3) #24, !noalias !331
  %.val = load ptr, ptr %19, align 8
  %.val23 = load ptr, ptr %20, align 8
  %54 = load i32, ptr %21, align 8, !tbaa !200
  %55 = icmp sgt i32 %54, 0
  br i1 %55, label %.lr.ph.i, label %_ZN12_GLOBAL__N_19calcDerivERKN2cv3MatES3_dS1_.exit

.lr.ph.i:                                         ; preds = %31
  %.val24 = load ptr, ptr %22, align 8
  %.val22 = load ptr, ptr %23, align 8
  %56 = load i64, ptr %.val22, align 8, !tbaa !72
  %57 = load ptr, ptr %24, align 8, !tbaa !109
  %58 = load ptr, ptr %25, align 8, !tbaa !110
  %59 = load i64, ptr %58, align 8, !tbaa !72
  %60 = load i64, ptr %.val24, align 8, !tbaa !72
  %wide.trip.count.i = zext nneg i32 %54 to i64
  br label %61

61:                                               ; preds = %61, %.lr.ph.i
  %indvars.iv.i = phi i64 [ 0, %.lr.ph.i ], [ %indvars.iv.next.i, %61 ]
  %62 = mul i64 %indvars.iv.i, %56
  %63 = getelementptr inbounds nuw i8, ptr %.val, i64 %62
  %64 = load double, ptr %63, align 8, !tbaa !22
  %65 = mul i64 %indvars.iv.i, %59
  %66 = getelementptr inbounds nuw i8, ptr %57, i64 %65
  %67 = load double, ptr %66, align 8, !tbaa !22
  %68 = fsub double %64, %67
  %69 = fdiv double %68, 2.000000e-04
  %70 = mul i64 %indvars.iv.i, %60
  %71 = getelementptr inbounds nuw i8, ptr %.val23, i64 %70
  store double %69, ptr %71, align 8, !tbaa !22
  %indvars.iv.next.i = add nuw nsw i64 %indvars.iv.i, 1
  %exitcond.not.i = icmp eq i64 %indvars.iv.next.i, %wide.trip.count.i
  br i1 %exitcond.not.i, label %_ZN12_GLOBAL__N_19calcDerivERKN2cv3MatES3_dS1_.exit, label %61, !llvm.loop !255

_ZN12_GLOBAL__N_19calcDerivERKN2cv3MatES3_dS1_.exit: ; preds = %61, %31
  call void @_ZN2cv3MatD1Ev(ptr noundef nonnull align 8 dereferenceable(96) %5) #24
  %72 = load ptr, ptr %14, align 8, !tbaa !109
  %73 = load ptr, ptr %15, align 8, !tbaa !110
  %74 = load i64, ptr %73, align 8, !tbaa !72
  %75 = mul i64 %74, %34
  %76 = getelementptr inbounds nuw i8, ptr %72, i64 %75
  store double %37, ptr %76, align 8, !tbaa !22
  %indvars.iv.next = add nuw nsw i64 %indvars.iv, 1
  %exitcond.not = icmp eq i64 %indvars.iv.next, 4
  br i1 %exitcond.not, label %27, label %31, !llvm.loop !334
}